; Function Attrs: mustprogress uwtable
define hidden noundef ptr @_Z35pj_projection_specific_setup_etmercP8PJconsts(ptr noundef %0) local_unnamed_addr #0 {
  %2 = getelementptr inbounds nuw i8, ptr %0, i64 216
  %3 = load double, ptr %2, align 8, !tbaa !67
  %4 = fcmp oeq double %3, 0.000000e+00
  br i1 %4, label %5, label %7

5:                                                ; preds = %1
  tail call void (ptr, ptr, ...) @_Z14proj_log_errorPK8PJconstsPKcz(ptr noundef nonnull %0, ptr noundef nonnull @.str.3)
  %6 = tail call noundef ptr @_Z21pj_default_destructorP8PJconstsi(ptr noundef nonnull %0, i32 noundef 1027)
  br label %9

7:                                                ; preds = %1
  %8 = tail call fastcc noundef ptr @_ZL5setupP8PJconsts9TMercAlgo(ptr noundef nonnull %0, i32 noundef 2)
  br label %9

9:                                                ; preds = %7, %5
  %.0 = phi ptr [ %6, %5 ], [ %8, %7 ]
  ret ptr %.0
}